
rv32ui-p-lui:     file format elf32-littleriscv


Disassembly of section .text:

00000080 <_start>:
  80:	0480006f          	j	c8 <reset_vector>

00000084 <trap_vector>:
  84:	34202f73          	csrr	t5,mcause
  88:	00800f93          	li	t6,8
  8c:	03ff0a63          	beq	t5,t6,c0 <write_tohost>
  90:	00900f93          	li	t6,9
  94:	03ff0663          	beq	t5,t6,c0 <write_tohost>
  98:	00b00f93          	li	t6,11
  9c:	03ff0263          	beq	t5,t6,c0 <write_tohost>
  a0:	00000f17          	auipc	t5,0x0
  a4:	f60f0f13          	addi	t5,t5,-160 # 0 <_start-0x80>
  a8:	000f0463          	beqz	t5,b0 <trap_vector+0x2c>
  ac:	000f0067          	jr	t5
  b0:	34202f73          	csrr	t5,mcause
  b4:	000f5463          	bgez	t5,bc <handle_exception>
  b8:	0040006f          	j	bc <handle_exception>

000000bc <handle_exception>:
  bc:	5391e193          	ori	gp,gp,1337

000000c0 <write_tohost>:
  c0:	20302023          	sw	gp,512(zero) # 200 <__DATA_BEGIN__>
  c4:	ffdff06f          	j	c0 <write_tohost>

000000c8 <reset_vector>:
  c8:	f1402573          	csrr	a0,mhartid
  cc:	00051063          	bnez	a0,cc <reset_vector+0x4>
  d0:	00000297          	auipc	t0,0x0
  d4:	01028293          	addi	t0,t0,16 # e0 <reset_vector+0x18>
  d8:	30529073          	csrw	mtvec,t0
  dc:	18005073          	csrwi	satp,0
  e0:	00000297          	auipc	t0,0x0
  e4:	01c28293          	addi	t0,t0,28 # fc <reset_vector+0x34>
  e8:	30529073          	csrw	mtvec,t0
  ec:	fff00293          	li	t0,-1
  f0:	3b029073          	csrw	pmpaddr0,t0
  f4:	01f00293          	li	t0,31
  f8:	3a029073          	csrw	pmpcfg0,t0
  fc:	00000297          	auipc	t0,0x0
 100:	01828293          	addi	t0,t0,24 # 114 <reset_vector+0x4c>
 104:	30529073          	csrw	mtvec,t0
 108:	30205073          	csrwi	medeleg,0
 10c:	30305073          	csrwi	mideleg,0
 110:	30405073          	csrwi	mie,0
 114:	00000193          	li	gp,0
 118:	00000297          	auipc	t0,0x0
 11c:	f6c28293          	addi	t0,t0,-148 # 84 <trap_vector>
 120:	30529073          	csrw	mtvec,t0
 124:	00100513          	li	a0,1
 128:	01f51513          	slli	a0,a0,0x1f
 12c:	00054863          	bltz	a0,13c <reset_vector+0x74>
 130:	0ff0000f          	fence
 134:	00100193          	li	gp,1
 138:	00000073          	ecall
 13c:	00000297          	auipc	t0,0x0
 140:	ec428293          	addi	t0,t0,-316 # 0 <_start-0x80>
 144:	00028e63          	beqz	t0,160 <reset_vector+0x98>
 148:	10529073          	csrw	stvec,t0
 14c:	0000b2b7          	lui	t0,0xb
 150:	10928293          	addi	t0,t0,265 # b109 <__global_pointer$+0xa6c1>
 154:	30229073          	csrw	medeleg,t0
 158:	30202373          	csrr	t1,medeleg
 15c:	f66290e3          	bne	t0,t1,bc <handle_exception>
 160:	30005073          	csrwi	mstatus,0
 164:	00000297          	auipc	t0,0x0
 168:	01428293          	addi	t0,t0,20 # 178 <test_2>
 16c:	34129073          	csrw	mepc,t0
 170:	f1402573          	csrr	a0,mhartid
 174:	30200073          	mret

00000178 <test_2>:
 178:	000000b7          	lui	ra,0x0
 17c:	00000e93          	li	t4,0
 180:	00200193          	li	gp,2
 184:	05d09a63          	bne	ra,t4,1d8 <fail>

00000188 <test_3>:
 188:	fffff0b7          	lui	ra,0xfffff
 18c:	4010d093          	srai	ra,ra,0x1
 190:	80000e93          	li	t4,-2048
 194:	00300193          	li	gp,3
 198:	05d09063          	bne	ra,t4,1d8 <fail>

0000019c <test_4>:
 19c:	7ffff0b7          	lui	ra,0x7ffff
 1a0:	4140d093          	srai	ra,ra,0x14
 1a4:	7ff00e93          	li	t4,2047
 1a8:	00400193          	li	gp,4
 1ac:	03d09663          	bne	ra,t4,1d8 <fail>

000001b0 <test_5>:
 1b0:	800000b7          	lui	ra,0x80000
 1b4:	4140d093          	srai	ra,ra,0x14
 1b8:	80000e93          	li	t4,-2048
 1bc:	00500193          	li	gp,5
 1c0:	01d09c63          	bne	ra,t4,1d8 <fail>

000001c4 <test_6>:
 1c4:	80000037          	lui	zero,0x80000
 1c8:	00000e93          	li	t4,0
 1cc:	00600193          	li	gp,6
 1d0:	01d01463          	bne	zero,t4,1d8 <fail>
 1d4:	00301c63          	bne	zero,gp,1ec <pass>

000001d8 <fail>:
 1d8:	0ff0000f          	fence
 1dc:	00018063          	beqz	gp,1dc <fail+0x4>
 1e0:	00119193          	slli	gp,gp,0x1
 1e4:	0011e193          	ori	gp,gp,1
 1e8:	00000073          	ecall

000001ec <pass>:
 1ec:	0ff0000f          	fence
 1f0:	00100193          	li	gp,1
 1f4:	00000073          	ecall
 1f8:	c0001073          	unimp
 1fc:	0000                	unimp
 1fe:	0000                	unimp
